target datalayout = "e-m:e-p270:32:32-p271:32:32-p272:64:64-i64:64-i128:128-f80:128-n8:16:32:64-S128"
target triple = "x86_64-pc-linux-gnu"

%struct.AVRational = type { i32, i32 }

@ff_log2_tab = external constant [256 x i8], align 16

; Function Attrs: alwaysinline nounwind willreturn memory(none) uwtable
define internal i32 @ff_log2_c(i32 noundef %0) #8 {
  %2 = alloca i32, align 4
  %3 = alloca i32, align 4
  store i32 %0, ptr %2, align 4, !tbaa !11
  call void @llvm.lifetime.start.p0(i64 4, ptr %3) #9
  store i32 0, ptr %3, align 4, !tbaa !11
  %4 = load i32, ptr %2, align 4, !tbaa !11
  %5 = and i32 %4, -65536
  %6 = icmp ne i32 %5, 0
  br i1 %6, label %7, label %12

7:                                                ; preds = %1
  %8 = load i32, ptr %2, align 4, !tbaa !11
  %9 = lshr i32 %8, 16
  store i32 %9, ptr %2, align 4, !tbaa !11
  %10 = load i32, ptr %3, align 4, !tbaa !11
  %11 = add nsw i32 %10, 16
  store i32 %11, ptr %3, align 4, !tbaa !11
  br label %12

12:                                               ; preds = %7, %1
  %13 = load i32, ptr %2, align 4, !tbaa !11
  %14 = and i32 %13, 65280
  %15 = icmp ne i32 %14, 0
  br i1 %15, label %16, label %21

16:                                               ; preds = %12
  %17 = load i32, ptr %2, align 4, !tbaa !11
  %18 = lshr i32 %17, 8
  store i32 %18, ptr %2, align 4, !tbaa !11
  %19 = load i32, ptr %3, align 4, !tbaa !11
  %20 = add nsw i32 %19, 8
  store i32 %20, ptr %3, align 4, !tbaa !11
  br label %21

21:                                               ; preds = %16, %12
  %22 = load i32, ptr %2, align 4, !tbaa !11
  %23 = zext i32 %22 to i64
  %24 = getelementptr inbounds nuw [256 x i8], ptr @ff_log2_tab, i64 0, i64 %23
  %25 = load i8, ptr %24, align 1, !tbaa !24
  %26 = zext i8 %25 to i32
  %27 = load i32, ptr %3, align 4, !tbaa !11
  %28 = add nsw i32 %27, %26
  store i32 %28, ptr %3, align 4, !tbaa !11
  %29 = load i32, ptr %3, align 4, !tbaa !11
  call void @llvm.lifetime.end.p0(i64 4, ptr %3) #9
  ret i32 %29
}

; Function Attrs: nounwind uwtable
define i32 @av_q2intfloat(i64 %0) #0 {
  %2 = alloca i32, align 4
  %3 = alloca %struct.AVRational, align 4
  %4 = alloca i64, align 8
  %5 = alloca i32, align 4
  %6 = alloca i32, align 4
  %7 = alloca i32, align 4
  store i64 %0, ptr %3, align 4
  call void @llvm.lifetime.start.p0(i64 8, ptr %4) #9
  call void @llvm.lifetime.start.p0(i64 4, ptr %5) #9
  call void @llvm.lifetime.start.p0(i64 4, ptr %6) #9
  store i32 0, ptr %6, align 4, !tbaa !11
  %8 = getelementptr inbounds nuw %struct.AVRational, ptr %3, i32 0, i32 1
  %9 = load i32, ptr %8, align 4, !tbaa !15
  %10 = icmp slt i32 %9, 0
  br i1 %10, label %11, label %18

11:                                               ; preds = %1
  %12 = getelementptr inbounds nuw %struct.AVRational, ptr %3, i32 0, i32 1
  %13 = load i32, ptr %12, align 4, !tbaa !15
  %14 = mul nsw i32 %13, -1
  store i32 %14, ptr %12, align 4, !tbaa !15
  %15 = getelementptr inbounds nuw %struct.AVRational, ptr %3, i32 0, i32 0
  %16 = load i32, ptr %15, align 4, !tbaa !13
  %17 = mul nsw i32 %16, -1
  store i32 %17, ptr %15, align 4, !tbaa !13
  br label %18

18:                                               ; preds = %11, %1
  %19 = getelementptr inbounds nuw %struct.AVRational, ptr %3, i32 0, i32 0
  %20 = load i32, ptr %19, align 4, !tbaa !13
  %21 = icmp slt i32 %20, 0
  br i1 %21, label %22, label %26

22:                                               ; preds = %18
  %23 = getelementptr inbounds nuw %struct.AVRational, ptr %3, i32 0, i32 0
  %24 = load i32, ptr %23, align 4, !tbaa !13
  %25 = mul nsw i32 %24, -1
  store i32 %25, ptr %23, align 4, !tbaa !13
  store i32 1, ptr %6, align 4, !tbaa !11
  br label %26

26:                                               ; preds = %22, %18
  %27 = getelementptr inbounds nuw %struct.AVRational, ptr %3, i32 0, i32 0
  %28 = load i32, ptr %27, align 4, !tbaa !13
  %29 = icmp ne i32 %28, 0
  br i1 %29, label %35, label %30

30:                                               ; preds = %26
  %31 = getelementptr inbounds nuw %struct.AVRational, ptr %3, i32 0, i32 1
  %32 = load i32, ptr %31, align 4, !tbaa !15
  %33 = icmp ne i32 %32, 0
  br i1 %33, label %35, label %34

34:                                               ; preds = %30
  store i32 -4194304, ptr %2, align 4
  store i32 1, ptr %7, align 4
  br label %131

35:                                               ; preds = %30, %26
  %36 = getelementptr inbounds nuw %struct.AVRational, ptr %3, i32 0, i32 0
  %37 = load i32, ptr %36, align 4, !tbaa !13
  %38 = icmp ne i32 %37, 0
  br i1 %38, label %40, label %39

39:                                               ; preds = %35
  store i32 0, ptr %2, align 4
  store i32 1, ptr %7, align 4
  br label %131

40:                                               ; preds = %35
  %41 = getelementptr inbounds nuw %struct.AVRational, ptr %3, i32 0, i32 1
  %42 = load i32, ptr %41, align 4, !tbaa !15
  %43 = icmp ne i32 %42, 0
  br i1 %43, label %49, label %44

44:                                               ; preds = %40
  %45 = getelementptr inbounds nuw %struct.AVRational, ptr %3, i32 0, i32 0
  %46 = load i32, ptr %45, align 4, !tbaa !13
  %47 = and i32 %46, -2147483648
  %48 = or i32 2139095040, %47
  store i32 %48, ptr %2, align 4
  store i32 1, ptr %7, align 4
  br label %131

49:                                               ; preds = %40
  %50 = getelementptr inbounds nuw %struct.AVRational, ptr %3, i32 0, i32 1
  %51 = load i32, ptr %50, align 4, !tbaa !15
  %52 = call i32 @ff_log2_c(i32 noundef %51) #10
  %53 = add nsw i32 23, %52
  %54 = getelementptr inbounds nuw %struct.AVRational, ptr %3, i32 0, i32 0
  %55 = load i32, ptr %54, align 4, !tbaa !13
  %56 = call i32 @ff_log2_c(i32 noundef %55) #10
  %57 = sub nsw i32 %53, %56
  store i32 %57, ptr %5, align 4, !tbaa !11
  %58 = load i32, ptr %5, align 4, !tbaa !11
  %59 = icmp sge i32 %58, 0
  br i1 %59, label %60, label %71

60:                                               ; preds = %49
  %61 = getelementptr inbounds nuw %struct.AVRational, ptr %3, i32 0, i32 0
  %62 = load i32, ptr %61, align 4, !tbaa !13
  %63 = sext i32 %62 to i64
  %64 = load i32, ptr %5, align 4, !tbaa !11
  %65 = zext i32 %64 to i64
  %66 = shl i64 1, %65
  %67 = getelementptr inbounds nuw %struct.AVRational, ptr %3, i32 0, i32 1
  %68 = load i32, ptr %67, align 4, !tbaa !15
  %69 = sext i32 %68 to i64
  %70 = call i64 @av_rescale(i64 noundef %63, i64 noundef %66, i64 noundef %69) #10
  store i64 %70, ptr %4, align 8, !tbaa !9
  br label %83

71:                                               ; preds = %49
  %72 = getelementptr inbounds nuw %struct.AVRational, ptr %3, i32 0, i32 0
  %73 = load i32, ptr %72, align 4, !tbaa !13
  %74 = sext i32 %73 to i64
  %75 = getelementptr inbounds nuw %struct.AVRational, ptr %3, i32 0, i32 1
  %76 = load i32, ptr %75, align 4, !tbaa !15
  %77 = sext i32 %76 to i64
  %78 = load i32, ptr %5, align 4, !tbaa !11
  %79 = sub nsw i32 0, %78
  %80 = zext i32 %79 to i64
  %81 = shl i64 %77, %80
  %82 = call i64 @av_rescale(i64 noundef %74, i64 noundef 1, i64 noundef %81) #10
  store i64 %82, ptr %4, align 8, !tbaa !9
  br label %83

83:                                               ; preds = %71, %60
  %84 = load i64, ptr %4, align 8, !tbaa !9
  %85 = icmp sge i64 %84, 16777216
  %86 = zext i1 %85 to i32
  %87 = load i32, ptr %5, align 4, !tbaa !11
  %88 = sub nsw i32 %87, %86
  store i32 %88, ptr %5, align 4, !tbaa !11
  %89 = load i64, ptr %4, align 8, !tbaa !9
  %90 = icmp slt i64 %89, 8388608
  %91 = zext i1 %90 to i32
  %92 = load i32, ptr %5, align 4, !tbaa !11
  %93 = add nsw i32 %92, %91
  store i32 %93, ptr %5, align 4, !tbaa !11
  %94 = load i32, ptr %5, align 4, !tbaa !11
  %95 = icmp sge i32 %94, 0
  br i1 %95, label %96, label %107

96:                                               ; preds = %83
  %97 = getelementptr inbounds nuw %struct.AVRational, ptr %3, i32 0, i32 0
  %98 = load i32, ptr %97, align 4, !tbaa !13
  %99 = sext i32 %98 to i64
  %100 = load i32, ptr %5, align 4, !tbaa !11
  %101 = zext i32 %100 to i64
  %102 = shl i64 1, %101
  %103 = getelementptr inbounds nuw %struct.AVRational, ptr %3, i32 0, i32 1
  %104 = load i32, ptr %103, align 4, !tbaa !15
  %105 = sext i32 %104 to i64
  %106 = call i64 @av_rescale(i64 noundef %99, i64 noundef %102, i64 noundef %105) #10
  store i64 %106, ptr %4, align 8, !tbaa !9
  br label %119

107:                                              ; preds = %83
  %108 = getelementptr inbounds nuw %struct.AVRational, ptr %3, i32 0, i32 0
  %109 = load i32, ptr %108, align 4, !tbaa !13
  %110 = sext i32 %109 to i64
  %111 = getelementptr inbounds nuw %struct.AVRational, ptr %3, i32 0, i32 1
  %112 = load i32, ptr %111, align 4, !tbaa !15
  %113 = sext i32 %112 to i64
  %114 = load i32, ptr %5, align 4, !tbaa !11
  %115 = sub nsw i32 0, %114
  %116 = zext i32 %115 to i64
  %117 = shl i64 %113, %116
  %118 = call i64 @av_rescale(i64 noundef %110, i64 noundef 1, i64 noundef %117) #10
  store i64 %118, ptr %4, align 8, !tbaa !9
  br label %119

119:                                              ; preds = %107, %96
  %120 = load i32, ptr %6, align 4, !tbaa !11
  %121 = shl i32 %120, 31
  %122 = load i32, ptr %5, align 4, !tbaa !11
  %123 = sub nsw i32 150, %122
  %124 = shl i32 %123, 23
  %125 = or i32 %121, %124
  %126 = sext i32 %125 to i64
  %127 = load i64, ptr %4, align 8, !tbaa !9
  %128 = sub nsw i64 %127, 8388608
  %129 = or i64 %126, %128
  %130 = trunc i64 %129 to i32
  store i32 %130, ptr %2, align 4
  store i32 1, ptr %7, align 4
  br label %131

131:                                              ; preds = %119, %44, %39, %34
  call void @llvm.lifetime.end.p0(i64 4, ptr %6) #9
  call void @llvm.lifetime.end.p0(i64 4, ptr %5) #9
  call void @llvm.lifetime.end.p0(i64 8, ptr %4) #9
  %132 = load i32, ptr %2, align 4
  ret i32 %132
}