; Function Attrs: mustprogress nofree nosync nounwind willreturn memory(none) uwtable
define i32 @av_q2intfloat(i64 %0) local_unnamed_addr #3 {
  %.sroa.0.0.extract.trunc = trunc i64 %0 to i32
  %.sroa.14.0.extract.shift = lshr i64 %0, 32
  %.sroa.14.0.extract.trunc = trunc nuw i64 %.sroa.14.0.extract.shift to i32
  %2 = icmp slt i64 %0, 0
  %3 = sub nsw i32 0, %.sroa.14.0.extract.trunc
  %4 = sub nsw i32 0, %.sroa.0.0.extract.trunc
  %.sroa.14.0 = select i1 %2, i32 %3, i32 %.sroa.14.0.extract.trunc
  %.sroa.0.0 = select i1 %2, i32 %4, i32 %.sroa.0.0.extract.trunc
  %.sroa.0.1 = tail call i32 @llvm.abs.i32(i32 %.sroa.0.0.extract.trunc, i1 true)
  %.0 = and i32 %.sroa.0.0, -2147483648
  %5 = icmp eq i32 %.sroa.0.0.extract.trunc, 0
  %6 = icmp ult i64 %0, 4294967296
  %.mux = select i1 %6, i32 -4194304, i32 0
  %brmerge41 = or i1 %6, %5
  %.mux.mux = select i1 %5, i32 %.mux, i32 2139095040
  br i1 %brmerge41, label %63, label %7

7:                                                ; preds = %1
  %.not.i = icmp samesign ult i32 %.sroa.14.0, 65536
  %8 = lshr i32 %.sroa.14.0, 16
  %spec.select.i = select i1 %.not.i, i32 %.sroa.14.0, i32 %8
  %spec.select12.i = select i1 %.not.i, i32 0, i32 16
  %.not11.i = icmp samesign ult i32 %spec.select.i, 256
  %9 = lshr i32 %spec.select.i, 8
  %10 = or disjoint i32 %spec.select12.i, 8
  %.110.i = select i1 %.not11.i, i32 %spec.select.i, i32 %9
  %.1.i = select i1 %.not11.i, i32 %spec.select12.i, i32 %10
  %11 = zext nneg i32 %.110.i to i64
  %12 = getelementptr inbounds nuw [256 x i8], ptr @ff_log2_tab, i64 0, i64 %11
  %13 = load i8, ptr %12, align 1, !tbaa !12
  %14 = zext i8 %13 to i32
  %.not.i42 = icmp samesign ult i32 %.sroa.0.1, 65536
  %15 = lshr i32 %.sroa.0.1, 16
  %spec.select.i43 = select i1 %.not.i42, i32 %.sroa.0.1, i32 %15
  %spec.select12.i44.neg = select i1 %.not.i42, i32 0, i32 -16
  %.not11.i45 = icmp samesign ult i32 %spec.select.i43, 256
  %16 = lshr i32 %spec.select.i43, 8
  %.neg53 = add nsw i32 %spec.select12.i44.neg, -8
  %.110.i46 = select i1 %.not11.i45, i32 %spec.select.i43, i32 %16
  %.1.i47.neg54 = select i1 %.not11.i45, i32 %spec.select12.i44.neg, i32 %.neg53
  %17 = zext nneg i32 %.110.i46 to i64
  %18 = getelementptr inbounds nuw [256 x i8], ptr @ff_log2_tab, i64 0, i64 %17
  %19 = load i8, ptr %18, align 1, !tbaa !12
  %20 = zext i8 %19 to i32
  %.neg52 = add nsw i32 %.1.i47.neg54, 23
  %21 = add nsw i32 %.neg52, %.1.i
  %22 = add nsw i32 %21, %14
  %23 = sub nsw i32 %22, %20
  %24 = icmp sgt i32 %23, -1
  %25 = zext nneg i32 %.sroa.0.1 to i64
  br i1 %24, label %26, label %31

26:                                               ; preds = %7
  %27 = zext nneg i32 %23 to i64
  %28 = shl nuw i64 1, %27
  %29 = zext nneg i32 %.sroa.14.0 to i64
  %30 = tail call i64 @av_rescale(i64 noundef %25, i64 noundef %28, i64 noundef %29) #8
  br label %37

31:                                               ; preds = %7
  %32 = zext nneg i32 %.sroa.14.0 to i64
  %33 = sub nsw i32 0, %23
  %34 = zext nneg i32 %33 to i64
  %35 = shl i64 %32, %34
  %36 = tail call i64 @av_rescale(i64 noundef %25, i64 noundef 1, i64 noundef %35) #8
  br label %37

37:                                               ; preds = %31, %26
  %.034 = phi i64 [ %30, %26 ], [ %36, %31 ]
  %38 = icmp sgt i64 %.034, 16777215
  %.neg = sext i1 %38 to i32
  %39 = add nsw i32 %23, %.neg
  %40 = icmp slt i64 %.034, 8388608
  %41 = zext i1 %40 to i32
  %42 = add nsw i32 %39, %41
  %43 = icmp sgt i32 %42, -1
  %44 = zext nneg i32 %.sroa.0.1 to i64
  br i1 %43, label %45, label %50

45:                                               ; preds = %37
  %46 = zext nneg i32 %42 to i64
  %47 = shl nuw i64 1, %46
  %48 = zext nneg i32 %.sroa.14.0 to i64
  %49 = tail call i64 @av_rescale(i64 noundef %44, i64 noundef %47, i64 noundef %48) #8
  br label %56

50:                                               ; preds = %37
  %51 = zext nneg i32 %.sroa.14.0 to i64
  %52 = sub nsw i32 0, %42
  %53 = zext nneg i32 %52 to i64
  %54 = shl i64 %51, %53
  %55 = tail call i64 @av_rescale(i64 noundef %44, i64 noundef 1, i64 noundef %54) #8
  br label %56

56:                                               ; preds = %50, %45
  %.1 = phi i64 [ %49, %45 ], [ %55, %50 ]
  %57 = shl i32 %42, 23
  %58 = sub i32 1258291200, %57
  %59 = or i32 %58, %.0
  %60 = trunc i64 %.1 to i32
  %61 = add i32 %60, -8388608
  %62 = or i32 %59, %61
  br label %63

63:                                               ; preds = %1, %56
  %.035 = phi i32 [ %62, %56 ], [ %.mux.mux, %1 ]
  ret i32 %.035
}